target datalayout = "e-m:e-p270:32:32-p271:32:32-p272:64:64-i64:64-i128:128-f80:128-n8:16:32:64-S128"
target triple = "x86_64-pc-linux-gnu"

@.str = private unnamed_addr constant [29 x i8] c"could not open file \22%s\22: %m\00", align 1
@pg_file_create_mode = external global i32, align 4
@.str.9 = private unnamed_addr constant [33 x i8] c"could not write to file \22%s\22: %m\00", align 1
@.str.10 = private unnamed_addr constant [56 x i8] c"could not write to file \22%s\22, offset %u: wrote %d of %d\00", align 1
@.str.11 = private unnamed_addr constant [39 x i8] c"could not update checksum of file \22%s\22\00", align 1
@.str.12 = private unnamed_addr constant [34 x i8] c"could not read from file \22%s\22: %m\00", align 1

; Function Attrs: nounwind uwtable
define internal void @copy_file_blocks(ptr noundef %0, ptr noundef %1, ptr noundef %2) #0 {
  %4 = alloca ptr, align 8
  %5 = alloca ptr, align 8
  %6 = alloca ptr, align 8
  %7 = alloca i32, align 4
  %8 = alloca i32, align 4
  %9 = alloca ptr, align 8
  %10 = alloca i32, align 4
  %11 = alloca i64, align 8
  %12 = alloca i32, align 4
  %13 = alloca i64, align 8
  store ptr %0, ptr %4, align 8
  store ptr %1, ptr %5, align 8
  store ptr %2, ptr %6, align 8
  call void @llvm.lifetime.start.p0(i64 4, ptr %7) #7
  call void @llvm.lifetime.start.p0(i64 4, ptr %8) #7
  call void @llvm.lifetime.start.p0(i64 8, ptr %9) #7
  call void @llvm.lifetime.start.p0(i64 4, ptr %10) #7
  store i32 409600, ptr %10, align 4
  call void @llvm.lifetime.start.p0(i64 8, ptr %11) #7
  call void @llvm.lifetime.start.p0(i64 4, ptr %12) #7
  store i32 0, ptr %12, align 4
  %14 = load ptr, ptr %4, align 8
  %15 = call i32 (ptr, i32, ...) @open(ptr noundef %14, i32 noundef 0, i32 noundef 0)
  store i32 %15, ptr %7, align 4
  %16 = icmp slt i32 %15, 0
  br i1 %16, label %17, label %22

17:                                               ; preds = %3
  br label %18

18:                                               ; preds = %17
  %19 = load ptr, ptr %4, align 8
  call void (i32, i32, ptr, ...) @pg_log_generic(i32 noundef 4, i32 noundef 0, ptr noundef @.str, ptr noundef %19)
  call void @exit(i32 noundef 1) #8
  unreachable

20:                                               ; No predecessors!
  br label %21

21:                                               ; preds = %20
  br label %22

22:                                               ; preds = %21, %3
  %23 = load ptr, ptr %5, align 8
  %24 = load i32, ptr @pg_file_create_mode, align 4
  %25 = call i32 (ptr, i32, ...) @open(ptr noundef %23, i32 noundef 193, i32 noundef %24)
  store i32 %25, ptr %8, align 4
  %26 = icmp slt i32 %25, 0
  br i1 %26, label %27, label %32

27:                                               ; preds = %22
  br label %28

28:                                               ; preds = %27
  %29 = load ptr, ptr %5, align 8
  call void (i32, i32, ptr, ...) @pg_log_generic(i32 noundef 4, i32 noundef 0, ptr noundef @.str, ptr noundef %29)
  call void @exit(i32 noundef 1) #8
  unreachable

30:                                               ; No predecessors!
  br label %31

31:                                               ; preds = %30
  br label %32

32:                                               ; preds = %31, %22
  %33 = call ptr @pg_malloc(i64 noundef 409600)
  store ptr %33, ptr %9, align 8
  br label %34

34:                                               ; preds = %76, %32
  %35 = load i32, ptr %7, align 4
  %36 = load ptr, ptr %9, align 8
  %37 = call i64 @read(i32 noundef %35, ptr noundef %36, i64 noundef 409600)
  store i64 %37, ptr %11, align 8
  %38 = icmp sgt i64 %37, 0
  br i1 %38, label %39, label %82

39:                                               ; preds = %34
  call void @llvm.lifetime.start.p0(i64 8, ptr %13) #7
  %40 = load i32, ptr %8, align 4
  %41 = load ptr, ptr %9, align 8
  %42 = load i64, ptr %11, align 8
  %43 = call i64 @write(i32 noundef %40, ptr noundef %41, i64 noundef %42)
  store i64 %43, ptr %13, align 8
  %44 = load i64, ptr %11, align 8
  %45 = icmp ne i64 %43, %44
  br i1 %45, label %46, label %65

46:                                               ; preds = %39
  %47 = load i64, ptr %13, align 8
  %48 = icmp slt i64 %47, 0
  br i1 %48, label %49, label %54

49:                                               ; preds = %46
  br label %50

50:                                               ; preds = %49
  %51 = load ptr, ptr %5, align 8
  call void (i32, i32, ptr, ...) @pg_log_generic(i32 noundef 4, i32 noundef 0, ptr noundef @.str.9, ptr noundef %51)
  call void @exit(i32 noundef 1) #8
  unreachable

52:                                               ; No predecessors!
  br label %53

53:                                               ; preds = %52
  br label %64

54:                                               ; preds = %46
  br label %55

55:                                               ; preds = %54
  %56 = load ptr, ptr %5, align 8
  %57 = load i32, ptr %12, align 4
  %58 = load i64, ptr %13, align 8
  %59 = trunc i64 %58 to i32
  %60 = load i64, ptr %11, align 8
  %61 = trunc i64 %60 to i32
  call void (i32, i32, ptr, ...) @pg_log_generic(i32 noundef 4, i32 noundef 0, ptr noundef @.str.10, ptr noundef %56, i32 noundef %57, i32 noundef %59, i32 noundef %61)
  call void @exit(i32 noundef 1) #8
  unreachable

62:                                               ; No predecessors!
  br label %63

63:                                               ; preds = %62
  br label %64

64:                                               ; preds = %63, %53
  br label %65

65:                                               ; preds = %64, %39
  %66 = load ptr, ptr %6, align 8
  %67 = load ptr, ptr %9, align 8
  %68 = load i64, ptr %11, align 8
  %69 = call i32 @pg_checksum_update(ptr noundef %66, ptr noundef %67, i64 noundef %68)
  %70 = icmp slt i32 %69, 0
  br i1 %70, label %71, label %76

71:                                               ; preds = %65
  br label %72

72:                                               ; preds = %71
  %73 = load ptr, ptr %5, align 8
  call void (i32, i32, ptr, ...) @pg_log_generic(i32 noundef 4, i32 noundef 0, ptr noundef @.str.11, ptr noundef %73)
  call void @exit(i32 noundef 1) #8
  unreachable

74:                                               ; No predecessors!
  br label %75

75:                                               ; preds = %74
  br label %76

76:                                               ; preds = %75, %65
  %77 = load i64, ptr %11, align 8
  %78 = load i32, ptr %12, align 4
  %79 = zext i32 %78 to i64
  %80 = add i64 %79, %77
  %81 = trunc i64 %80 to i32
  store i32 %81, ptr %12, align 4
  call void @llvm.lifetime.end.p0(i64 8, ptr %13) #7
  br label %34, !llvm.loop !6

82:                                               ; preds = %34
  %83 = load i64, ptr %11, align 8
  %84 = icmp slt i64 %83, 0
  br i1 %84, label %85, label %90

85:                                               ; preds = %82
  br label %86

86:                                               ; preds = %85
  %87 = load ptr, ptr %5, align 8
  call void (i32, i32, ptr, ...) @pg_log_generic(i32 noundef 4, i32 noundef 0, ptr noundef @.str.12, ptr noundef %87)
  call void @exit(i32 noundef 1) #8
  unreachable

88:                                               ; No predecessors!
  br label %89

89:                                               ; preds = %88
  br label %90

90:                                               ; preds = %89, %82
  %91 = load ptr, ptr %9, align 8
  call void @pg_free(ptr noundef %91)
  %92 = load i32, ptr %7, align 4
  %93 = call i32 @close(i32 noundef %92)
  %94 = load i32, ptr %8, align 4
  %95 = call i32 @close(i32 noundef %94)
  call void @llvm.lifetime.end.p0(i64 4, ptr %12) #7
  call void @llvm.lifetime.end.p0(i64 8, ptr %11) #7
  call void @llvm.lifetime.end.p0(i64 4, ptr %10) #7
  call void @llvm.lifetime.end.p0(i64 8, ptr %9) #7
  call void @llvm.lifetime.end.p0(i64 4, ptr %8) #7
  call void @llvm.lifetime.end.p0(i64 4, ptr %7) #7
  ret void
}