; Function Attrs: nounwind uwtable
define internal void @copy_file_blocks(ptr noundef %0, ptr noundef %1, ptr noundef %2) unnamed_addr #0 {
  %4 = tail call i32 (ptr, i32, ...) @open(ptr noundef %0, i32 noundef 0, i32 noundef 0) #7
  %5 = icmp slt i32 %4, 0
  br i1 %5, label %6, label %7

6:                                                ; preds = %3
  tail call void (i32, i32, ptr, ...) @pg_log_generic(i32 noundef 4, i32 noundef 0, ptr noundef nonnull @.str, ptr noundef %0) #7
  tail call void @exit(i32 noundef 1) #8
  unreachable

7:                                                ; preds = %3
  %8 = load i32, ptr @pg_file_create_mode, align 4
  %9 = tail call i32 (ptr, i32, ...) @open(ptr noundef %1, i32 noundef 193, i32 noundef %8) #7
  %10 = icmp slt i32 %9, 0
  br i1 %10, label %11, label %12

11:                                               ; preds = %7
  tail call void (i32, i32, ptr, ...) @pg_log_generic(i32 noundef 4, i32 noundef 0, ptr noundef nonnull @.str, ptr noundef %1) #7
  tail call void @exit(i32 noundef 1) #8
  unreachable

12:                                               ; preds = %7
  %13 = tail call ptr @pg_malloc(i64 noundef 409600) #7
  %14 = tail call i64 @read(i32 noundef %4, ptr noundef %13, i64 noundef 409600) #7
  %15 = icmp sgt i64 %14, 0
  br i1 %15, label %.lr.ph, label %._crit_edge

16:                                               ; preds = %29
  %17 = trunc i64 %21 to i32
  %18 = add i32 %.036, %17
  %19 = tail call i64 @read(i32 noundef %4, ptr noundef %13, i64 noundef 409600) #7
  %20 = icmp sgt i64 %19, 0
  br i1 %20, label %.lr.ph, label %._crit_edge, !llvm.loop !6

.lr.ph:                                           ; preds = %12, %16
  %21 = phi i64 [ %19, %16 ], [ %14, %12 ]
  %.036 = phi i32 [ %18, %16 ], [ 0, %12 ]
  %22 = tail call i64 @write(i32 noundef %9, ptr noundef %13, i64 noundef %21) #7
  %.not = icmp eq i64 %22, %21
  br i1 %.not, label %29, label %23

23:                                               ; preds = %.lr.ph
  %24 = icmp slt i64 %22, 0
  br i1 %24, label %25, label %26

25:                                               ; preds = %23
  tail call void (i32, i32, ptr, ...) @pg_log_generic(i32 noundef 4, i32 noundef 0, ptr noundef nonnull @.str.9, ptr noundef %1) #7
  tail call void @exit(i32 noundef 1) #8
  unreachable

26:                                               ; preds = %23
  %27 = trunc i64 %22 to i32
  %28 = trunc i64 %21 to i32
  tail call void (i32, i32, ptr, ...) @pg_log_generic(i32 noundef 4, i32 noundef 0, ptr noundef nonnull @.str.10, ptr noundef %1, i32 noundef %.036, i32 noundef %27, i32 noundef %28) #7
  tail call void @exit(i32 noundef 1) #8
  unreachable

29:                                               ; preds = %.lr.ph
  %30 = tail call i32 @pg_checksum_update(ptr noundef %2, ptr noundef %13, i64 noundef %21) #7
  %31 = icmp slt i32 %30, 0
  br i1 %31, label %32, label %16

32:                                               ; preds = %29
  tail call void (i32, i32, ptr, ...) @pg_log_generic(i32 noundef 4, i32 noundef 0, ptr noundef nonnull @.str.11, ptr noundef %1) #7
  tail call void @exit(i32 noundef 1) #8
  unreachable

._crit_edge:                                      ; preds = %16, %12
  %.lcssa = phi i64 [ %14, %12 ], [ %19, %16 ]
  %33 = icmp slt i64 %.lcssa, 0
  br i1 %33, label %34, label %35

34:                                               ; preds = %._crit_edge
  tail call void (i32, i32, ptr, ...) @pg_log_generic(i32 noundef 4, i32 noundef 0, ptr noundef nonnull @.str.12, ptr noundef %1) #7
  tail call void @exit(i32 noundef 1) #8
  unreachable

35:                                               ; preds = %._crit_edge
  tail call void @pg_free(ptr noundef %13) #7
  %36 = tail call i32 @close(i32 noundef %4) #7
  %37 = tail call i32 @close(i32 noundef %9) #7
  ret void
}